target datalayout = "e-m:e-p270:32:32-p271:32:32-p272:64:64-i64:64-i128:128-f80:128-n8:16:32:64-S128"
target triple = "x86_64-pc-linux-gnu"

%"struct.ue2::CompileContext" = type { i8, i8, %"struct.ue2::target_t", %"struct.ue2::Grey" }
%"struct.ue2::target_t" = type { i32, i64 }
%"struct.ue2::Grey" = type <{ i8, i8, i8, i8, i8, i8, i8, i8, i8, i8, i8, i8, i8, i8, i8, i8, i8, i8, i8, i8, i8, i8, i8, i8, i8, [3 x i8], i32, i8, i8, i8, i8, i32, i32, i8, i8, i8, i8, i8, i8, i8, i8, i8, i8, i8, i8, i8, i8, i8, i8, i8, i8, i8, i8, i8, [3 x i8], i32, i32, i32, i32, i32, i32, i32, i32, i32, i8, i8, i8, i8, i8, i8, i8, i8, i8, i8, i8, i8, i32, i32, i32, i8, i8, i8, i8, i8, i8, [2 x i8], i32, i8, i8, [2 x i8], i32, i8, i8, i8, i8, i32, i32, i32, i32, i32, i32, i8, [3 x i8], i32, i32, [4 x i8], %"class.std::__cxx11::basic_string", i32, i32, i32, i32, i32, i32, i32, i32, i32, i32, i32, i32, i32, i32, i32, i32, i32, [4 x i8] }>
%"class.std::__cxx11::basic_string" = type { %"struct.std::__cxx11::basic_string<char>::_Alloc_hider", i64, %union.anon }
%"struct.std::__cxx11::basic_string<char>::_Alloc_hider" = type { ptr }
%union.anon = type { i64, [8 x i8] }

; Function Attrs: mustprogress uwtable
define hidden void @_ZN3ue211reduceGraphERNS_8NGHolderENS_8som_typeEbRKNS_14CompileContextE(ptr noundef nonnull align 8 dereferenceable(136) %0, i32 noundef %1, i1 noundef zeroext %2, ptr noundef nonnull align 8 dereferenceable(320) %3) #3 {
  %5 = alloca ptr, align 8
  %6 = alloca i32, align 4
  %7 = alloca i8, align 1
  %8 = alloca ptr, align 8
  %9 = alloca i32, align 4
  %10 = alloca i32, align 4
  %11 = alloca i32, align 4
  %12 = alloca i8, align 1
  store ptr %0, ptr %5, align 8
  store i32 %1, ptr %6, align 4
  %13 = zext i1 %2 to i8
  store i8 %13, ptr %7, align 1
  store ptr %3, ptr %8, align 8
  %14 = load ptr, ptr %8, align 8
  %15 = getelementptr inbounds nuw %"struct.ue2::CompileContext", ptr %14, i32 0, i32 3
  %16 = getelementptr inbounds nuw %"struct.ue2::Grey", ptr %15, i32 0, i32 2
  %17 = load i8, ptr %16, align 2, !range !5, !noundef !6
  %18 = trunc i8 %17 to i1
  br i1 %18, label %20, label %19

19:                                               ; preds = %4
  br label %121

20:                                               ; preds = %4
  %21 = load i32, ptr %6, align 4
  %22 = icmp ne i32 %21, 0
  br i1 %22, label %26, label %23

23:                                               ; preds = %20
  %24 = load ptr, ptr %5, align 8
  %25 = call noundef zeroext i1 @_ZN3ue219mergeCyclicDotStarsERNS_8NGHolderE(ptr noundef nonnull align 8 dereferenceable(136) %24)
  br label %26

26:                                               ; preds = %23, %20
  call void @llvm.lifetime.start.p0(i64 4, ptr %9) #20
  store i32 3, ptr %9, align 4
  call void @llvm.lifetime.start.p0(i64 4, ptr %10) #20
  store i32 1, ptr %10, align 4
  br label %27

27:                                               ; preds = %85, %26
  %28 = load i32, ptr %10, align 4
  %29 = icmp ule i32 %28, 3
  br i1 %29, label %31, label %30

30:                                               ; preds = %27
  store i32 2, ptr %11, align 4
  br label %88

31:                                               ; preds = %27
  call void @llvm.lifetime.start.p0(i64 1, ptr %12) #20
  store i8 0, ptr %12, align 1
  br label %32

32:                                               ; preds = %31
  br label %33

33:                                               ; preds = %32
  br label %34

34:                                               ; preds = %33
  %35 = load ptr, ptr %5, align 8
  %36 = load i32, ptr %6, align 4
  %37 = load ptr, ptr %8, align 8
  %38 = call noundef zeroext i1 @_ZN3ue220removeEdgeRedundancyERNS_8NGHolderENS_8som_typeERKNS_14CompileContextE(ptr noundef nonnull align 8 dereferenceable(136) %35, i32 noundef %36, ptr noundef nonnull align 8 dereferenceable(320) %37)
  %39 = zext i1 %38 to i32
  %40 = load i8, ptr %12, align 1, !range !5, !noundef !6
  %41 = trunc i8 %40 to i1
  %42 = zext i1 %41 to i32
  %43 = or i32 %42, %39
  %44 = icmp ne i32 %43, 0
  %45 = zext i1 %44 to i8
  store i8 %45, ptr %12, align 1
  %46 = load ptr, ptr %5, align 8
  %47 = load ptr, ptr %8, align 8
  %48 = call noundef zeroext i1 @_ZN3ue223reduceGraphEquivalencesERNS_8NGHolderERKNS_14CompileContextE(ptr noundef nonnull align 8 dereferenceable(136) %46, ptr noundef nonnull align 8 dereferenceable(320) %47)
  %49 = zext i1 %48 to i32
  %50 = load i8, ptr %12, align 1, !range !5, !noundef !6
  %51 = trunc i8 %50 to i1
  %52 = zext i1 %51 to i32
  %53 = or i32 %52, %49
  %54 = icmp ne i32 %53, 0
  %55 = zext i1 %54 to i8
  store i8 %55, ptr %12, align 1
  %56 = load ptr, ptr %5, align 8
  %57 = load i32, ptr %6, align 4
  %58 = call noundef zeroext i1 @_ZN3ue216removeRedundancyERNS_8NGHolderENS_8som_typeE(ptr noundef nonnull align 8 dereferenceable(136) %56, i32 noundef %57)
  %59 = zext i1 %58 to i32
  %60 = load i8, ptr %12, align 1, !range !5, !noundef !6
  %61 = trunc i8 %60 to i1
  %62 = zext i1 %61 to i32
  %63 = or i32 %62, %59
  %64 = icmp ne i32 %63, 0
  %65 = zext i1 %64 to i8
  store i8 %65, ptr %12, align 1
  %66 = load ptr, ptr %5, align 8
  %67 = call noundef zeroext i1 @_ZN3ue226removeCyclicPathRedundancyERNS_8NGHolderE(ptr noundef nonnull align 8 dereferenceable(136) %66)
  %68 = zext i1 %67 to i32
  %69 = load i8, ptr %12, align 1, !range !5, !noundef !6
  %70 = trunc i8 %69 to i1
  %71 = zext i1 %70 to i32
  %72 = or i32 %71, %68
  %73 = icmp ne i32 %72, 0
  %74 = zext i1 %73 to i8
  store i8 %74, ptr %12, align 1
  %75 = load i8, ptr %12, align 1, !range !5, !noundef !6
  %76 = trunc i8 %75 to i1
  br i1 %76, label %81, label %77

77:                                               ; preds = %34
  br label %78

78:                                               ; preds = %77
  br label %79

79:                                               ; preds = %78
  br label %80

80:                                               ; preds = %79
  store i32 2, ptr %11, align 4
  br label %82

81:                                               ; preds = %34
  store i32 0, ptr %11, align 4
  br label %82

82:                                               ; preds = %81, %80
  call void @llvm.lifetime.end.p0(i64 1, ptr %12) #20
  %83 = load i32, ptr %11, align 4
  switch i32 %83, label %88 [
    i32 0, label %84
  ]

84:                                               ; preds = %82
  br label %85

85:                                               ; preds = %84
  %86 = load i32, ptr %10, align 4
  %87 = add i32 %86, 1
  store i32 %87, ptr %10, align 4
  br label %27, !llvm.loop !7

88:                                               ; preds = %82, %30
  call void @llvm.lifetime.end.p0(i64 4, ptr %10) #20
  br label %89

89:                                               ; preds = %88
  %90 = load i8, ptr %7, align 1, !range !5, !noundef !6
  %91 = trunc i8 %90 to i1
  br i1 %91, label %92, label %96

92:                                               ; preds = %89
  %93 = load ptr, ptr %5, align 8
  %94 = load i32, ptr %6, align 4
  %95 = icmp ne i32 %94, 0
  call void @_ZN3ue218utf8DotRestorationERNS_8NGHolderEb(ptr noundef nonnull align 8 dereferenceable(136) %93, i1 noundef zeroext %95)
  br label %96

96:                                               ; preds = %92, %89
  %97 = load ptr, ptr %5, align 8
  %98 = load i32, ptr %6, align 4
  %99 = call noundef zeroext i1 @_ZN3ue212improveGraphERNS_8NGHolderENS_8som_typeE(ptr noundef nonnull align 8 dereferenceable(136) %97, i32 noundef %98)
  br i1 %99, label %100, label %105

100:                                              ; preds = %96
  %101 = load ptr, ptr %5, align 8
  %102 = load i32, ptr %6, align 4
  %103 = load ptr, ptr %8, align 8
  %104 = call noundef zeroext i1 @_ZN3ue220removeEdgeRedundancyERNS_8NGHolderENS_8som_typeERKNS_14CompileContextE(ptr noundef nonnull align 8 dereferenceable(136) %101, i32 noundef %102, ptr noundef nonnull align 8 dereferenceable(320) %103)
  br label %105

105:                                              ; preds = %100, %96
  %106 = load ptr, ptr %5, align 8
  %107 = load i32, ptr %6, align 4
  %108 = call noundef zeroext i1 @_ZN3ue221removeCyclicDominatedERNS_8NGHolderENS_8som_typeE(ptr noundef nonnull align 8 dereferenceable(136) %106, i32 noundef %107)
  %109 = load i32, ptr %6, align 4
  %110 = icmp ne i32 %109, 0
  br i1 %110, label %114, label %111

111:                                              ; preds = %105
  %112 = load ptr, ptr %5, align 8
  %113 = call noundef zeroext i1 @_ZN3ue219mergeCyclicDotStarsERNS_8NGHolderE(ptr noundef nonnull align 8 dereferenceable(136) %112)
  br label %114

114:                                              ; preds = %111, %105
  %115 = load i32, ptr %6, align 4
  %116 = icmp ne i32 %115, 0
  br i1 %116, label %120, label %117

117:                                              ; preds = %114
  %118 = load ptr, ptr %5, align 8
  %119 = call noundef zeroext i1 @_ZN3ue228removeSiblingsOfStartDotStarERNS_8NGHolderE(ptr noundef nonnull align 8 dereferenceable(136) %118)
  br label %120

120:                                              ; preds = %117, %114
  call void @llvm.lifetime.end.p0(i64 4, ptr %9) #20
  br label %121

121:                                              ; preds = %120, %19
  ret void
}