; Function Attrs: mustprogress uwtable
define hidden void @_ZN3ue211reduceGraphERNS_8NGHolderENS_8som_typeEbRKNS_14CompileContextE(ptr noundef nonnull align 8 dereferenceable(136) %0, i32 noundef %1, i1 noundef zeroext %2, ptr noundef nonnull align 8 dereferenceable(320) %3) local_unnamed_addr #0 {
  %5 = getelementptr inbounds nuw i8, ptr %3, i64 26
  %6 = load i8, ptr %5, align 2, !range !9, !noundef !10
  %7 = trunc nuw i8 %6 to i1
  br i1 %7, label %8, label %.critedge

8:                                                ; preds = %4
  %9 = icmp ne i32 %1, 0
  br i1 %9, label %.preheader, label %10

10:                                               ; preds = %8
  %11 = tail call noundef zeroext i1 @_ZN3ue219mergeCyclicDotStarsERNS_8NGHolderE(ptr noundef nonnull align 8 dereferenceable(136) %0)
  br label %.preheader

.preheader:                                       ; preds = %10, %8
  br label %12

12:                                               ; preds = %.preheader, %12
  %.033 = phi i32 [ %20, %12 ], [ 1, %.preheader ]
  %13 = tail call noundef zeroext i1 @_ZN3ue220removeEdgeRedundancyERNS_8NGHolderENS_8som_typeERKNS_14CompileContextE(ptr noundef nonnull align 8 dereferenceable(136) %0, i32 noundef %1, ptr noundef nonnull align 8 dereferenceable(320) %3)
  %14 = tail call noundef zeroext i1 @_ZN3ue223reduceGraphEquivalencesERNS_8NGHolderERKNS_14CompileContextE(ptr noundef nonnull align 8 dereferenceable(136) %0, ptr noundef nonnull align 8 dereferenceable(320) %3)
  %15 = or i1 %13, %14
  %16 = tail call noundef zeroext i1 @_ZN3ue216removeRedundancyERNS_8NGHolderENS_8som_typeE(ptr noundef nonnull align 8 dereferenceable(136) %0, i32 noundef %1)
  %17 = or i1 %15, %16
  %18 = tail call noundef zeroext i1 @_ZN3ue226removeCyclicPathRedundancyERNS_8NGHolderE(ptr noundef nonnull align 8 dereferenceable(136) %0)
  %19 = or i1 %17, %18
  %20 = add nuw nsw i32 %.033, 1
  %exitcond.not = icmp ne i32 %20, 4
  %or.cond.not = select i1 %19, i1 %exitcond.not, i1 false
  br i1 %or.cond.not, label %12, label %21, !llvm.loop !11

21:                                               ; preds = %12
  br i1 %2, label %22, label %23

22:                                               ; preds = %21
  tail call void @_ZN3ue218utf8DotRestorationERNS_8NGHolderEb(ptr noundef nonnull align 8 dereferenceable(136) %0, i1 noundef zeroext %9)
  br label %23

23:                                               ; preds = %22, %21
  %24 = tail call noundef zeroext i1 @_ZN3ue212improveGraphERNS_8NGHolderENS_8som_typeE(ptr noundef nonnull align 8 dereferenceable(136) %0, i32 noundef %1)
  br i1 %24, label %25, label %27

25:                                               ; preds = %23
  %26 = tail call noundef zeroext i1 @_ZN3ue220removeEdgeRedundancyERNS_8NGHolderENS_8som_typeERKNS_14CompileContextE(ptr noundef nonnull align 8 dereferenceable(136) %0, i32 noundef %1, ptr noundef nonnull align 8 dereferenceable(320) %3)
  br label %27

27:                                               ; preds = %25, %23
  %28 = tail call noundef zeroext i1 @_ZN3ue221removeCyclicDominatedERNS_8NGHolderENS_8som_typeE(ptr noundef nonnull align 8 dereferenceable(136) %0, i32 noundef %1)
  br i1 %9, label %.critedge, label %29

29:                                               ; preds = %27
  %30 = tail call noundef zeroext i1 @_ZN3ue219mergeCyclicDotStarsERNS_8NGHolderE(ptr noundef nonnull align 8 dereferenceable(136) %0)
  %31 = tail call noundef zeroext i1 @_ZN3ue228removeSiblingsOfStartDotStarERNS_8NGHolderE(ptr noundef nonnull align 8 dereferenceable(136) %0)
  br label %.critedge

.critedge:                                        ; preds = %29, %27, %4
  ret void
}